; Function Attrs: mustprogress nounwind uwtable
define dso_local void @_ZN4llvm14CombinerHelper20replaceInstWithUndefERNS_12MachineInstrE(ptr nocapture noundef nonnull readonly align 8 dereferenceable(72) %0, ptr noundef nonnull align 8 dereferenceable(70) %1) local_unnamed_addr #0 align 2 {
  %3 = alloca %"class.llvm::DstOp", align 8
  %4 = load ptr, ptr %0, align 8
  %5 = getelementptr inbounds nuw i8, ptr %1, i64 32
  %6 = load ptr, ptr %5, align 8
  %7 = getelementptr inbounds nuw i8, ptr %6, i64 4
  %8 = load i32, ptr %7, align 4
  store i32 %8, ptr %3, align 8
  %9 = getelementptr inbounds nuw i8, ptr %3, i64 8
  store i32 1, ptr %9, align 8
  %10 = call { ptr, ptr } @_ZN4llvm16MachineIRBuilder10buildUndefERKNS_5DstOpE(ptr noundef nonnull align 8 dereferenceable(88) %4, ptr noundef nonnull align 8 dereferenceable(12) %3) #27
  call void @_ZN4llvm12MachineInstr15eraseFromParentEv(ptr noundef nonnull align 8 dereferenceable(70) %1) #27
  ret void
}